target datalayout = "e-m:e-p270:32:32-p271:32:32-p272:64:64-i64:64-i128:128-f80:128-n8:16:32:64-S128"
target triple = "x86_64-pc-linux-gnu"

%struct._lv_global_t = type { i8, i8, %struct.lv_ll_t, ptr, ptr, %struct.lv_ll_t, i8, i32, i32, ptr, %struct.lv_ll_t, ptr, %struct.lv_ll_t, ptr, ptr, i32, ptr, i8, i32, i32, ptr, i32, %struct.lv_timer_state_t, %struct.lv_anim_state_t, %struct.lv_tick_state_t, %struct._lv_draw_buf_handlers_t, %struct._lv_draw_buf_handlers_t, %struct._lv_draw_buf_handlers_t, %struct.lv_ll_t, ptr, ptr, %struct.lv_draw_global_info_t, [4 x %struct.lv_draw_sw_mask_radius_circle_dsc_t], ptr, ptr, ptr, %struct.lv_tlsf_state_t, %struct.lv_ll_t, ptr, ptr, %struct.lv_style_t, i64, ptr, i32, ptr }
%struct.lv_timer_state_t = type { %struct.lv_ll_t, i8, i8, i8, i8, i32, i8, i32, i32, i32, i32, ptr, ptr }
%struct.lv_anim_state_t = type { i8, i8, ptr, %struct.lv_ll_t }
%struct.lv_tick_state_t = type { i32, i8, ptr, ptr }
%struct._lv_draw_buf_handlers_t = type { ptr, ptr, ptr, ptr, ptr, ptr }
%struct.lv_draw_global_info_t = type { ptr, i32, i32, i32, i32, i8 }
%struct.lv_draw_sw_mask_radius_circle_dsc_t = type { ptr, ptr, ptr, ptr, i32, i32, i32 }
%struct.lv_tlsf_state_t = type { ptr, i64, i64, %struct.lv_ll_t }
%struct.lv_ll_t = type { i32, ptr, ptr }
%struct.lv_style_t = type { ptr, i32, i8 }
%struct._lv_obj_t = type { ptr, ptr, ptr, ptr, ptr, %struct.lv_area_t, i32, i16, i16 }
%struct.lv_area_t = type { i32, i32, i32, i32 }
%struct._lv_obj_style_t = type { ptr, i32 }
%struct.trans_t = type { ptr, i8, i32, %union.lv_style_value_t, %union.lv_style_value_t }
%union.lv_style_value_t = type { ptr }
%struct._lv_anim_t = type { ptr, ptr, ptr, ptr, ptr, ptr, ptr, ptr, ptr, i32, i32, i32, i32, i32, i32, i32, i32, i32, %union._lv_anim_path_para_t, i32, i32, i32, i8 }
%union._lv_anim_path_para_t = type { %struct.lv_anim_bezier3_para_t }
%struct.lv_anim_bezier3_para_t = type { i16, i16, i16, i16 }

@lv_global = external global %struct._lv_global_t, align 8

; Function Attrs: nounwind uwtable
define internal void @trans_anim_completed_cb(ptr noundef %0) #0 {
  %2 = alloca ptr, align 8
  %3 = alloca ptr, align 8
  %4 = alloca ptr, align 8
  %5 = alloca i8, align 1
  %6 = alloca i8, align 1
  %7 = alloca ptr, align 8
  %8 = alloca i32, align 4
  %9 = alloca ptr, align 8
  store ptr %0, ptr %2, align 8, !tbaa !120
  call void @llvm.lifetime.start.p0(i64 8, ptr %3) #6
  %10 = load ptr, ptr %2, align 8, !tbaa !120
  %11 = getelementptr inbounds nuw %struct._lv_anim_t, ptr %10, i32 0, i32 0
  %12 = load ptr, ptr %11, align 8, !tbaa !122
  store ptr %12, ptr %3, align 8, !tbaa !31
  call void @llvm.lifetime.start.p0(i64 8, ptr %4) #6
  %13 = load ptr, ptr %3, align 8, !tbaa !31
  %14 = getelementptr inbounds nuw %struct.trans_t, ptr %13, i32 0, i32 0
  %15 = load ptr, ptr %14, align 8, !tbaa !48
  store ptr %15, ptr %4, align 8, !tbaa !30
  call void @llvm.lifetime.start.p0(i64 1, ptr %5) #6
  %16 = load ptr, ptr %3, align 8, !tbaa !31
  %17 = getelementptr inbounds nuw %struct.trans_t, ptr %16, i32 0, i32 1
  %18 = load i8, ptr %17, align 8, !tbaa !51
  store i8 %18, ptr %5, align 1, !tbaa !43
  call void @llvm.lifetime.start.p0(i64 1, ptr %6) #6
  store i8 0, ptr %6, align 1, !tbaa !47
  call void @llvm.lifetime.start.p0(i64 8, ptr %7) #6
  %19 = call ptr @lv_ll_get_head(ptr noundef getelementptr inbounds nuw (%struct._lv_global_t, ptr @lv_global, i32 0, i32 5))
  store ptr %19, ptr %7, align 8, !tbaa !31
  br label %20

20:                                               ; preds = %55, %1
  %21 = load ptr, ptr %7, align 8, !tbaa !31
  %22 = icmp ne ptr %21, null
  br i1 %22, label %23, label %58

23:                                               ; preds = %20
  %24 = load ptr, ptr %7, align 8, !tbaa !31
  %25 = load ptr, ptr %3, align 8, !tbaa !31
  %26 = icmp ne ptr %24, %25
  br i1 %26, label %27, label %54

27:                                               ; preds = %23
  %28 = load ptr, ptr %7, align 8, !tbaa !31
  %29 = getelementptr inbounds nuw %struct.trans_t, ptr %28, i32 0, i32 0
  %30 = load ptr, ptr %29, align 8, !tbaa !48
  %31 = load ptr, ptr %3, align 8, !tbaa !31
  %32 = getelementptr inbounds nuw %struct.trans_t, ptr %31, i32 0, i32 0
  %33 = load ptr, ptr %32, align 8, !tbaa !48
  %34 = icmp eq ptr %30, %33
  br i1 %34, label %35, label %54

35:                                               ; preds = %27
  %36 = load ptr, ptr %7, align 8, !tbaa !31
  %37 = getelementptr inbounds nuw %struct.trans_t, ptr %36, i32 0, i32 2
  %38 = load i32, ptr %37, align 4, !tbaa !50
  %39 = load ptr, ptr %3, align 8, !tbaa !31
  %40 = getelementptr inbounds nuw %struct.trans_t, ptr %39, i32 0, i32 2
  %41 = load i32, ptr %40, align 4, !tbaa !50
  %42 = icmp eq i32 %38, %41
  br i1 %42, label %43, label %54

43:                                               ; preds = %35
  %44 = load ptr, ptr %7, align 8, !tbaa !31
  %45 = getelementptr inbounds nuw %struct.trans_t, ptr %44, i32 0, i32 1
  %46 = load i8, ptr %45, align 8, !tbaa !51
  %47 = zext i8 %46 to i32
  %48 = load ptr, ptr %3, align 8, !tbaa !31
  %49 = getelementptr inbounds nuw %struct.trans_t, ptr %48, i32 0, i32 1
  %50 = load i8, ptr %49, align 8, !tbaa !51
  %51 = zext i8 %50 to i32
  %52 = icmp eq i32 %47, %51
  br i1 %52, label %53, label %54

53:                                               ; preds = %43
  store i8 1, ptr %6, align 1, !tbaa !47
  br label %58

54:                                               ; preds = %43, %35, %27, %23
  br label %55

55:                                               ; preds = %54
  %56 = load ptr, ptr %7, align 8, !tbaa !31
  %57 = call ptr @lv_ll_get_next(ptr noundef getelementptr inbounds nuw (%struct._lv_global_t, ptr @lv_global, i32 0, i32 5), ptr noundef %56)
  store ptr %57, ptr %7, align 8, !tbaa !31
  br label %20, !llvm.loop !124

58:                                               ; preds = %53, %20
  %59 = load i8, ptr %6, align 1, !tbaa !47, !range !54, !noundef !55
  %60 = trunc i8 %59 to i1
  br i1 %60, label %135, label %61

61:                                               ; preds = %58
  call void @llvm.lifetime.start.p0(i64 4, ptr %8) #6
  store i32 0, ptr %8, align 4, !tbaa !32
  br label %62

62:                                               ; preds = %131, %61
  %63 = load i32, ptr %8, align 4, !tbaa !32
  %64 = load ptr, ptr %4, align 8, !tbaa !30
  %65 = getelementptr inbounds nuw %struct._lv_obj_t, ptr %64, i32 0, i32 8
  %66 = load i16, ptr %65, align 2
  %67 = lshr i16 %66, 4
  %68 = and i16 %67, 63
  %69 = zext i16 %68 to i32
  %70 = icmp ult i32 %63, %69
  br i1 %70, label %71, label %134

71:                                               ; preds = %62
  %72 = load ptr, ptr %4, align 8, !tbaa !30
  %73 = getelementptr inbounds nuw %struct._lv_obj_t, ptr %72, i32 0, i32 3
  %74 = load ptr, ptr %73, align 8, !tbaa !33
  %75 = load i32, ptr %8, align 4, !tbaa !32
  %76 = zext i32 %75 to i64
  %77 = getelementptr inbounds nuw %struct._lv_obj_style_t, ptr %74, i64 %76
  %78 = getelementptr inbounds nuw %struct._lv_obj_style_t, ptr %77, i32 0, i32 1
  %79 = load i32, ptr %78, align 8
  %80 = lshr i32 %79, 25
  %81 = and i32 %80, 1
  %82 = icmp ne i32 %81, 0
  br i1 %82, label %83, label %130

83:                                               ; preds = %71
  %84 = load ptr, ptr %4, align 8, !tbaa !30
  %85 = getelementptr inbounds nuw %struct._lv_obj_t, ptr %84, i32 0, i32 3
  %86 = load ptr, ptr %85, align 8, !tbaa !33
  %87 = load i32, ptr %8, align 4, !tbaa !32
  %88 = zext i32 %87 to i64
  %89 = getelementptr inbounds nuw %struct._lv_obj_style_t, ptr %86, i64 %88
  %90 = getelementptr inbounds nuw %struct._lv_obj_style_t, ptr %89, i32 0, i32 1
  %91 = load i32, ptr %90, align 8
  %92 = and i32 %91, 16777215
  %93 = load ptr, ptr %3, align 8, !tbaa !31
  %94 = getelementptr inbounds nuw %struct.trans_t, ptr %93, i32 0, i32 2
  %95 = load i32, ptr %94, align 4, !tbaa !50
  %96 = icmp eq i32 %92, %95
  br i1 %96, label %97, label %130

97:                                               ; preds = %83
  %98 = load ptr, ptr %3, align 8, !tbaa !31
  call void @lv_ll_remove(ptr noundef getelementptr inbounds nuw (%struct._lv_global_t, ptr @lv_global, i32 0, i32 5), ptr noundef %98)
  %99 = load ptr, ptr %3, align 8, !tbaa !31
  call void @lv_free(ptr noundef %99)
  call void @llvm.lifetime.start.p0(i64 8, ptr %9) #6
  %100 = load ptr, ptr %4, align 8, !tbaa !30
  %101 = getelementptr inbounds nuw %struct._lv_obj_t, ptr %100, i32 0, i32 3
  %102 = load ptr, ptr %101, align 8, !tbaa !33
  %103 = load i32, ptr %8, align 4, !tbaa !32
  %104 = zext i32 %103 to i64
  %105 = getelementptr inbounds nuw %struct._lv_obj_style_t, ptr %102, i64 %104
  store ptr %105, ptr %9, align 8, !tbaa !110
  %106 = load ptr, ptr %9, align 8, !tbaa !110
  %107 = getelementptr inbounds nuw %struct._lv_obj_style_t, ptr %106, i32 0, i32 0
  %108 = load ptr, ptr %107, align 8, !tbaa !45
  %109 = load i8, ptr %5, align 1, !tbaa !43
  %110 = call zeroext i1 @lv_style_remove_prop(ptr noundef %108, i8 noundef zeroext %109)
  %111 = load ptr, ptr %4, align 8, !tbaa !30
  %112 = getelementptr inbounds nuw %struct._lv_obj_t, ptr %111, i32 0, i32 3
  %113 = load ptr, ptr %112, align 8, !tbaa !33
  %114 = load i32, ptr %8, align 4, !tbaa !32
  %115 = zext i32 %114 to i64
  %116 = getelementptr inbounds nuw %struct._lv_obj_style_t, ptr %113, i64 %115
  %117 = getelementptr inbounds nuw %struct._lv_obj_style_t, ptr %116, i32 0, i32 0
  %118 = load ptr, ptr %117, align 8, !tbaa !45
  %119 = call zeroext i1 @lv_style_is_empty(ptr noundef %118)
  br i1 %119, label %120, label %129

120:                                              ; preds = %97
  %121 = load ptr, ptr %4, align 8, !tbaa !30
  %122 = load ptr, ptr %9, align 8, !tbaa !110
  %123 = getelementptr inbounds nuw %struct._lv_obj_style_t, ptr %122, i32 0, i32 0
  %124 = load ptr, ptr %123, align 8, !tbaa !45
  %125 = load ptr, ptr %9, align 8, !tbaa !110
  %126 = getelementptr inbounds nuw %struct._lv_obj_style_t, ptr %125, i32 0, i32 1
  %127 = load i32, ptr %126, align 8
  %128 = and i32 %127, 16777215
  call void @lv_obj_remove_style(ptr noundef %121, ptr noundef %124, i32 noundef %128)
  br label %129

129:                                              ; preds = %120, %97
  call void @llvm.lifetime.end.p0(i64 8, ptr %9) #6
  br label %134

130:                                              ; preds = %83, %71
  br label %131

131:                                              ; preds = %130
  %132 = load i32, ptr %8, align 4, !tbaa !32
  %133 = add i32 %132, 1
  store i32 %133, ptr %8, align 4, !tbaa !32
  br label %62, !llvm.loop !125

134:                                              ; preds = %129, %62
  call void @llvm.lifetime.end.p0(i64 4, ptr %8) #6
  br label %135

135:                                              ; preds = %134, %58
  call void @llvm.lifetime.end.p0(i64 8, ptr %7) #6
  call void @llvm.lifetime.end.p0(i64 1, ptr %6) #6
  call void @llvm.lifetime.end.p0(i64 1, ptr %5) #6
  call void @llvm.lifetime.end.p0(i64 8, ptr %4) #6
  call void @llvm.lifetime.end.p0(i64 8, ptr %3) #6
  ret void
}