; Function Attrs: nounwind uwtable
define internal void @trans_anim_completed_cb(ptr noundef readonly captures(none) %0) #0 {
  %2 = load ptr, ptr %0, align 8, !tbaa !107
  %3 = load ptr, ptr %2, align 8, !tbaa !51
  %4 = getelementptr inbounds nuw i8, ptr %2, i64 8
  %5 = load i8, ptr %4, align 8, !tbaa !53
  %6 = tail call ptr @lv_ll_get_head(ptr noundef nonnull getelementptr inbounds nuw (i8, ptr @lv_global, i64 48)) #9
  %.not.not38 = icmp eq ptr %6, null
  br i1 %.not.not38, label %.critedge.preheader, label %.lr.ph

.lr.ph:                                           ; preds = %1
  %7 = getelementptr inbounds nuw i8, ptr %2, i64 12
  br label %15

.critedge.preheader:                              ; preds = %30, %1
  %8 = getelementptr inbounds nuw i8, ptr %3, i64 62
  %9 = load i16, ptr %8, align 2
  %10 = lshr i16 %9, 4
  %11 = and i16 %10, 63
  %.not42 = icmp eq i16 %11, 0
  br i1 %.not42, label %.loopexit, label %.lr.ph41

.lr.ph41:                                         ; preds = %.critedge.preheader
  %12 = getelementptr inbounds nuw i8, ptr %3, i64 24
  %13 = load ptr, ptr %12, align 8, !tbaa !38
  %14 = getelementptr inbounds nuw i8, ptr %2, i64 12
  %wide.trip.count = zext nneg i16 %11 to i64
  br label %32

15:                                               ; preds = %.lr.ph, %30
  %.03339 = phi ptr [ %6, %.lr.ph ], [ %31, %30 ]
  %.not35 = icmp eq ptr %.03339, %2
  br i1 %.not35, label %30, label %16

16:                                               ; preds = %15
  %17 = load ptr, ptr %.03339, align 8, !tbaa !51
  %18 = load ptr, ptr %2, align 8, !tbaa !51
  %19 = icmp eq ptr %17, %18
  br i1 %19, label %20, label %30

20:                                               ; preds = %16
  %21 = getelementptr inbounds nuw i8, ptr %.03339, i64 12
  %22 = load i32, ptr %21, align 4, !tbaa !56
  %23 = load i32, ptr %7, align 4, !tbaa !56
  %24 = icmp eq i32 %22, %23
  br i1 %24, label %25, label %30

25:                                               ; preds = %20
  %26 = getelementptr inbounds nuw i8, ptr %.03339, i64 8
  %27 = load i8, ptr %26, align 8, !tbaa !53
  %28 = load i8, ptr %4, align 8, !tbaa !53
  %29 = icmp eq i8 %27, %28
  br i1 %29, label %.loopexit, label %30

30:                                               ; preds = %15, %16, %20, %25
  %31 = tail call ptr @lv_ll_get_next(ptr noundef nonnull getelementptr inbounds nuw (i8, ptr @lv_global, i64 48), ptr noundef nonnull %.03339) #9
  %.not.not = icmp eq ptr %31, null
  br i1 %.not.not, label %.critedge.preheader, label %15, !llvm.loop !109

32:                                               ; preds = %.lr.ph41, %.critedge
  %indvars.iv = phi i64 [ 0, %.lr.ph41 ], [ %indvars.iv.next, %.critedge ]
  %33 = getelementptr inbounds nuw %struct._lv_obj_style_t, ptr %13, i64 %indvars.iv, i32 1
  %34 = load i32, ptr %33, align 8
  %35 = and i32 %34, 33554432
  %.not = icmp eq i32 %35, 0
  br i1 %.not, label %.critedge, label %36

36:                                               ; preds = %32
  %37 = and i32 %34, 16777215
  %38 = load i32, ptr %14, align 4, !tbaa !56
  %39 = icmp eq i32 %37, %38
  br i1 %39, label %40, label %.critedge

40:                                               ; preds = %36
  tail call void @lv_ll_remove(ptr noundef nonnull getelementptr inbounds nuw (i8, ptr @lv_global, i64 48), ptr noundef nonnull %2) #9
  tail call void @lv_free(ptr noundef nonnull %2) #9
  %41 = load ptr, ptr %12, align 8, !tbaa !38
  %42 = getelementptr inbounds nuw %struct._lv_obj_style_t, ptr %41, i64 %indvars.iv
  %43 = load ptr, ptr %42, align 8, !tbaa !49
  %44 = tail call zeroext i1 @lv_style_remove_prop(ptr noundef %43, i8 noundef zeroext %5) #9
  %45 = load ptr, ptr %12, align 8, !tbaa !38
  %46 = getelementptr inbounds nuw %struct._lv_obj_style_t, ptr %45, i64 %indvars.iv
  %47 = load ptr, ptr %46, align 8, !tbaa !49
  %48 = tail call zeroext i1 @lv_style_is_empty(ptr noundef %47) #9
  br i1 %48, label %49, label %.loopexit

49:                                               ; preds = %40
  %50 = load ptr, ptr %42, align 8, !tbaa !49
  %51 = getelementptr inbounds nuw i8, ptr %42, i64 8
  %52 = load i32, ptr %51, align 8
  %53 = and i32 %52, 16777215
  tail call void @lv_obj_remove_style(ptr noundef nonnull %3, ptr noundef %50, i32 noundef %53)
  br label %.loopexit

.critedge:                                        ; preds = %32, %36
  %indvars.iv.next = add nuw nsw i64 %indvars.iv, 1
  %exitcond.not = icmp eq i64 %indvars.iv.next, %wide.trip.count
  br i1 %exitcond.not, label %.loopexit, label %32, !llvm.loop !110

.loopexit:                                        ; preds = %25, %.critedge, %.critedge.preheader, %49, %40
  ret void
}